target datalayout = "e-m:e-p270:32:32-p271:32:32-p272:64:64-i64:64-i128:128-f80:128-n8:16:32:64-S128"
target triple = "x86_64-pc-linux-gnu"

%struct.darktable_t = type { %struct.dt_codepath_t, i32, i32, ptr, ptr, ptr, ptr, ptr, ptr, ptr, ptr, ptr, ptr, ptr, ptr, ptr, ptr, ptr, ptr, ptr, ptr, ptr, ptr, ptr, ptr, ptr, ptr, ptr, ptr, ptr, [64 x %struct.dt_pthread_mutex_t], %struct.dt_pthread_mutex_t, %struct.dt_pthread_mutex_t, %struct.dt_pthread_mutex_t, %struct.dt_pthread_mutex_t, %struct.dt_pthread_mutex_t, ptr, ptr, ptr, ptr, ptr, ptr, ptr, ptr, ptr, ptr, ptr, ptr, ptr, %struct.dt_lua_state_t, ptr, double, ptr, i32, [47 x i32], i32, i32, ptr, ptr, %struct.dt_sys_resources_t, %struct.dt_backthumb_t, %struct.dt_gimp_t }
%struct.dt_codepath_t = type { i8, [3 x i8] }
%struct.dt_pthread_mutex_t = type { %union.pthread_mutex_t }
%union.pthread_mutex_t = type { %struct.__pthread_mutex_s }
%struct.__pthread_mutex_s = type { i32, i32, i32, i32, i32, i16, i16, %struct.__pthread_internal_list }
%struct.__pthread_internal_list = type { ptr, ptr }
%struct.dt_lua_state_t = type { i32 }
%struct.dt_sys_resources_t = type { i64, i64, ptr, ptr, i32 }
%struct.dt_backthumb_t = type { double, double, i32, i32, i32, i32 }
%struct.dt_gimp_t = type { i32, ptr, ptr, i32, i32 }
%struct.dt_camera_shared_t = type { ptr }
%struct.dt_camera_import_t = type { %struct.dt_camera_shared_t, ptr, ptr, ptr, double, i32 }

@darktable = external global %struct.darktable_t, align 8
@.str.2 = private unnamed_addr constant [2 x i8] c"-\00", align 1
@.str.3 = private unnamed_addr constant [23 x i8] c"Xmp.darktable.image_id\00", align 1
@.str.4 = private unnamed_addr constant [21 x i8] c"%d/%d imported to %s\00", align 1
@.str.5 = private unnamed_addr constant [40 x i8] c"[signal] raise %s; %s:%d, function %s()\00", align 1
@.str.6 = private unnamed_addr constant [22 x i8] c"DT_SIGNAL_TAG_CHANGED\00", align 1
@.str.7 = private unnamed_addr constant [128 x i8] c"generated/home/dtcxzyw/WorkSpace/Projects/compilers/llvm-opt-benchmark/bench/darktable/darktable/src/control/jobs/camera_jobs.c\00", align 1
@__FUNCTION__._camera_import_image_downloaded = private unnamed_addr constant [32 x i8] c"_camera_import_image_downloaded\00", align 1
@.str.8 = private unnamed_addr constant [29 x i8] c"DT_SIGNAL_FILMROLLS_IMPORTED\00", align 1

; Function Attrs: nounwind uwtable
define void @_camera_import_image_downloaded(ptr noundef %0, ptr noundef %1, ptr noundef %2, ptr noundef %3, ptr noundef %4) #0 {
  %6 = alloca ptr, align 8
  %7 = alloca ptr, align 8
  %8 = alloca ptr, align 8
  %9 = alloca ptr, align 8
  %10 = alloca ptr, align 8
  %11 = alloca ptr, align 8
  %12 = alloca i32, align 4
  %13 = alloca i64, align 8
  %14 = alloca [20 x i8], align 16
  %15 = alloca ptr, align 8
  %16 = alloca ptr, align 8
  %17 = alloca i32, align 4
  store ptr %0, ptr %6, align 8, !tbaa !70
  store ptr %1, ptr %7, align 8, !tbaa !6
  store ptr %2, ptr %8, align 8, !tbaa !6
  store ptr %3, ptr %9, align 8, !tbaa !6
  store ptr %4, ptr %10, align 8, !tbaa !64
  call void @llvm.lifetime.start.p0(i64 8, ptr %11) #7
  %18 = load ptr, ptr %10, align 8, !tbaa !64
  store ptr %18, ptr %11, align 8, !tbaa !72
  call void @llvm.lifetime.start.p0(i64 4, ptr %12) #7
  %19 = load ptr, ptr %11, align 8, !tbaa !72
  %20 = getelementptr inbounds nuw %struct.dt_camera_import_t, ptr %19, i32 0, i32 0
  %21 = getelementptr inbounds nuw %struct.dt_camera_shared_t, ptr %20, i32 0, i32 0
  %22 = load ptr, ptr %21, align 8, !tbaa !74
  %23 = call i32 @dt_import_session_film_id(ptr noundef %22)
  %24 = load ptr, ptr %9, align 8, !tbaa !6
  %25 = call i32 @dt_image_import(i32 noundef %23, ptr noundef %24, i32 noundef 0, i32 noundef 1)
  store i32 %25, ptr %12, align 4, !tbaa !11
  call void @llvm.lifetime.start.p0(i64 8, ptr %13) #7
  %26 = load ptr, ptr %7, align 8, !tbaa !6
  %27 = icmp ne ptr %26, null
  br i1 %27, label %28, label %31

28:                                               ; preds = %5
  %29 = load ptr, ptr %8, align 8, !tbaa !6
  %30 = icmp ne ptr %29, null
  br i1 %30, label %32, label %31

31:                                               ; preds = %28, %5
  br label %37

32:                                               ; preds = %28
  %33 = load ptr, ptr getelementptr inbounds nuw (%struct.darktable_t, ptr @darktable, i32 0, i32 20), align 8, !tbaa !27
  %34 = load ptr, ptr %7, align 8, !tbaa !6
  %35 = load ptr, ptr %8, align 8, !tbaa !6
  %36 = call i64 @dt_camctl_get_image_file_timestamp(ptr noundef %33, ptr noundef %34, ptr noundef %35)
  br label %37

37:                                               ; preds = %32, %31
  %38 = phi i64 [ 0, %31 ], [ %36, %32 ]
  store i64 %38, ptr %13, align 8, !tbaa !76
  %39 = load i64, ptr %13, align 8, !tbaa !76
  %40 = icmp ne i64 %39, 0
  br i1 %40, label %41, label %53

41:                                               ; preds = %37
  %42 = load i32, ptr %12, align 4, !tbaa !11
  %43 = icmp sgt i32 %42, 0
  br i1 %43, label %44, label %53

44:                                               ; preds = %41
  call void @llvm.lifetime.start.p0(i64 20, ptr %14) #7
  %45 = getelementptr inbounds [20 x i8], ptr %14, i64 0, i64 0
  %46 = call i32 @dt_datetime_unix_to_exif(ptr noundef %45, i64 noundef 20, ptr noundef %13)
  call void @llvm.lifetime.start.p0(i64 8, ptr %15) #7
  %47 = load ptr, ptr %8, align 8, !tbaa !6
  %48 = getelementptr inbounds [20 x i8], ptr %14, i64 0, i64 0
  %49 = call noalias ptr (ptr, ...) @g_strconcat(ptr noundef %47, ptr noundef @.str.2, ptr noundef %48, ptr noundef null)
  store ptr %49, ptr %15, align 8, !tbaa !6
  %50 = load i32, ptr %12, align 4, !tbaa !11
  %51 = load ptr, ptr %15, align 8, !tbaa !6
  call void @dt_metadata_set(i32 noundef %50, ptr noundef @.str.3, ptr noundef %51, i32 noundef 0)
  %52 = load ptr, ptr %15, align 8, !tbaa !6
  call void @g_free(ptr noundef %52)
  call void @llvm.lifetime.end.p0(i64 8, ptr %15) #7
  call void @llvm.lifetime.end.p0(i64 20, ptr %14) #7
  br label %53

53:                                               ; preds = %44, %41, %37
  call void (...) @dt_control_queue_redraw_center()
  call void @llvm.lifetime.start.p0(i64 8, ptr %16) #7
  %54 = load ptr, ptr %9, align 8, !tbaa !6
  %55 = call noalias ptr @g_path_get_basename(ptr noundef %54)
  store ptr %55, ptr %16, align 8, !tbaa !6
  call void @llvm.lifetime.start.p0(i64 4, ptr %17) #7
  %56 = load ptr, ptr %11, align 8, !tbaa !72
  %57 = getelementptr inbounds nuw %struct.dt_camera_import_t, ptr %56, i32 0, i32 1
  %58 = load ptr, ptr %57, align 8, !tbaa !77
  %59 = call i32 @g_list_length(ptr noundef %58)
  store i32 %59, ptr %17, align 4, !tbaa !11
  %60 = load ptr, ptr %11, align 8, !tbaa !72
  %61 = getelementptr inbounds nuw %struct.dt_camera_import_t, ptr %60, i32 0, i32 5
  %62 = load i32, ptr %61, align 8, !tbaa !78
  %63 = add i32 %62, 1
  %64 = zext i32 %63 to i64
  %65 = call ptr @dcngettext(ptr noundef null, ptr noundef @.str.4, ptr noundef @.str.4, i64 noundef %64, i32 noundef 5) #7
  %66 = load ptr, ptr %11, align 8, !tbaa !72
  %67 = getelementptr inbounds nuw %struct.dt_camera_import_t, ptr %66, i32 0, i32 5
  %68 = load i32, ptr %67, align 8, !tbaa !78
  %69 = add i32 %68, 1
  %70 = load i32, ptr %17, align 4, !tbaa !11
  %71 = load ptr, ptr %16, align 8, !tbaa !6
  call void (ptr, ...) @dt_control_log(ptr noundef %65, i32 noundef %69, i32 noundef %70, ptr noundef %71)
  %72 = load ptr, ptr %16, align 8, !tbaa !6
  call void @g_free(ptr noundef %72)
  %73 = load i32, ptr %17, align 4, !tbaa !11
  %74 = sitofp i32 %73 to double
  %75 = fdiv reassoc nsz arcp contract afn double 1.000000e+00, %74
  %76 = load ptr, ptr %11, align 8, !tbaa !72
  %77 = getelementptr inbounds nuw %struct.dt_camera_import_t, ptr %76, i32 0, i32 4
  %78 = load double, ptr %77, align 8, !tbaa !79
  %79 = fadd reassoc nsz arcp contract afn double %78, %75
  store double %79, ptr %77, align 8, !tbaa !79
  %80 = load ptr, ptr %11, align 8, !tbaa !72
  %81 = getelementptr inbounds nuw %struct.dt_camera_import_t, ptr %80, i32 0, i32 3
  %82 = load ptr, ptr %81, align 8, !tbaa !80
  %83 = load ptr, ptr %11, align 8, !tbaa !72
  %84 = getelementptr inbounds nuw %struct.dt_camera_import_t, ptr %83, i32 0, i32 4
  %85 = load double, ptr %84, align 8, !tbaa !79
  call void @dt_control_job_set_progress(ptr noundef %82, double noundef %85)
  %86 = load i32, ptr %12, align 4, !tbaa !11
  %87 = and i32 %86, 3
  %88 = icmp eq i32 %87, 3
  br i1 %88, label %89, label %91

89:                                               ; preds = %53
  %90 = load ptr, ptr getelementptr inbounds nuw (%struct.darktable_t, ptr @darktable, i32 0, i32 21), align 8, !tbaa !81
  call void @dt_collection_update_query(ptr noundef %90, i32 noundef 3, i32 noundef 43, ptr noundef null)
  br label %91

91:                                               ; preds = %89, %53
  %92 = load ptr, ptr %11, align 8, !tbaa !72
  %93 = getelementptr inbounds nuw %struct.dt_camera_import_t, ptr %92, i32 0, i32 5
  %94 = load i32, ptr %93, align 8, !tbaa !78
  %95 = add i32 %94, 1
  %96 = load i32, ptr %17, align 4, !tbaa !11
  %97 = icmp eq i32 %95, %96
  br i1 %97, label %98, label %154

98:                                               ; preds = %91
  call void (...) @dt_control_queue_redraw_center()
  br label %99

99:                                               ; preds = %98
  %100 = load i32, ptr getelementptr inbounds nuw (%struct.darktable_t, ptr @darktable, i32 0, i32 53), align 8, !tbaa !82
  %101 = and i32 %100, 1
  %102 = icmp ne i32 %101, 0
  br i1 %102, label %103, label %120

103:                                              ; preds = %99
  %104 = load i32, ptr getelementptr inbounds ([47 x i32], ptr getelementptr inbounds nuw (%struct.darktable_t, ptr @darktable, i32 0, i32 54), i64 0, i64 9), align 4, !tbaa !11
  %105 = icmp ne i32 %104, 0
  br i1 %105, label %106, label %120

106:                                              ; preds = %103
  br label %107

107:                                              ; preds = %106
  %108 = load i32, ptr getelementptr inbounds nuw (%struct.darktable_t, ptr @darktable, i32 0, i32 2), align 8, !tbaa !83
  %109 = and i32 1048576, %108
  %110 = icmp ne i32 %109, 0
  br i1 %110, label %111, label %117

111:                                              ; preds = %107
  %112 = load i32, ptr getelementptr inbounds nuw (%struct.darktable_t, ptr @darktable, i32 0, i32 2), align 8, !tbaa !83
  %113 = xor i32 %112, -1
  %114 = and i32 0, %113
  %115 = icmp ne i32 %114, 0
  br i1 %115, label %117, label %116

116:                                              ; preds = %111
  call void (ptr, ...) @dt_print_ext(ptr noundef @.str.5, ptr noundef @.str.6, ptr noundef @.str.7, i32 noundef 291, ptr noundef @__FUNCTION__._camera_import_image_downloaded)
  br label %117

117:                                              ; preds = %116, %111, %107
  br label %118

118:                                              ; preds = %117
  br label %119

119:                                              ; preds = %118
  br label %120

120:                                              ; preds = %119, %103, %99
  %121 = load ptr, ptr getelementptr inbounds nuw (%struct.darktable_t, ptr @darktable, i32 0, i32 13), align 8, !tbaa !84
  call void (ptr, i32, ...) @dt_control_signal_raise(ptr noundef %121, i32 noundef 9)
  br label %122

122:                                              ; preds = %120
  br label %123

123:                                              ; preds = %122
  br label %124

124:                                              ; preds = %123
  %125 = load i32, ptr getelementptr inbounds nuw (%struct.darktable_t, ptr @darktable, i32 0, i32 53), align 8, !tbaa !82
  %126 = and i32 %125, 1
  %127 = icmp ne i32 %126, 0
  br i1 %127, label %128, label %145

128:                                              ; preds = %124
  %129 = load i32, ptr getelementptr inbounds ([47 x i32], ptr getelementptr inbounds nuw (%struct.darktable_t, ptr @darktable, i32 0, i32 54), i64 0, i64 16), align 4, !tbaa !11
  %130 = icmp ne i32 %129, 0
  br i1 %130, label %131, label %145

131:                                              ; preds = %128
  br label %132

132:                                              ; preds = %131
  %133 = load i32, ptr getelementptr inbounds nuw (%struct.darktable_t, ptr @darktable, i32 0, i32 2), align 8, !tbaa !83
  %134 = and i32 1048576, %133
  %135 = icmp ne i32 %134, 0
  br i1 %135, label %136, label %142

136:                                              ; preds = %132
  %137 = load i32, ptr getelementptr inbounds nuw (%struct.darktable_t, ptr @darktable, i32 0, i32 2), align 8, !tbaa !83
  %138 = xor i32 %137, -1
  %139 = and i32 0, %138
  %140 = icmp ne i32 %139, 0
  br i1 %140, label %142, label %141

141:                                              ; preds = %136
  call void (ptr, ...) @dt_print_ext(ptr noundef @.str.5, ptr noundef @.str.8, ptr noundef @.str.7, i32 noundef 294, ptr noundef @__FUNCTION__._camera_import_image_downloaded)
  br label %142

142:                                              ; preds = %141, %136, %132
  br label %143

143:                                              ; preds = %142
  br label %144

144:                                              ; preds = %143
  br label %145

145:                                              ; preds = %144, %128, %124
  %146 = load ptr, ptr getelementptr inbounds nuw (%struct.darktable_t, ptr @darktable, i32 0, i32 13), align 8, !tbaa !84
  %147 = load ptr, ptr %11, align 8, !tbaa !72
  %148 = getelementptr inbounds nuw %struct.dt_camera_import_t, ptr %147, i32 0, i32 0
  %149 = getelementptr inbounds nuw %struct.dt_camera_shared_t, ptr %148, i32 0, i32 0
  %150 = load ptr, ptr %149, align 8, !tbaa !74
  %151 = call i32 @dt_import_session_film_id(ptr noundef %150)
  call void (ptr, i32, ...) @dt_control_signal_raise(ptr noundef %146, i32 noundef 16, i32 noundef %151)
  br label %152

152:                                              ; preds = %145
  br label %153

153:                                              ; preds = %152
  br label %154

154:                                              ; preds = %153, %91
  %155 = load ptr, ptr %11, align 8, !tbaa !72
  %156 = getelementptr inbounds nuw %struct.dt_camera_import_t, ptr %155, i32 0, i32 5
  %157 = load i32, ptr %156, align 8, !tbaa !78
  %158 = add i32 %157, 1
  store i32 %158, ptr %156, align 8, !tbaa !78
  call void @llvm.lifetime.end.p0(i64 4, ptr %17) #7
  call void @llvm.lifetime.end.p0(i64 8, ptr %16) #7
  call void @llvm.lifetime.end.p0(i64 8, ptr %13) #7
  call void @llvm.lifetime.end.p0(i64 4, ptr %12) #7
  call void @llvm.lifetime.end.p0(i64 8, ptr %11) #7
  ret void
}