; Function Attrs: nounwind uwtable
define void @_camera_import_image_downloaded(ptr readnone captures(none) %0, ptr noundef %1, ptr noundef %2, ptr noundef %3, ptr noundef captures(none) %4) #0 {
  %6 = alloca i64, align 8
  %7 = alloca [20 x i8], align 16
  %8 = load ptr, ptr %4, align 8, !tbaa !61
  %9 = tail call i32 @dt_import_session_film_id(ptr noundef %8) #10
  %10 = tail call i32 @dt_image_import(i32 noundef %9, ptr noundef %3, i32 noundef 0, i32 noundef 1) #10
  call void @llvm.lifetime.start.p0(i64 8, ptr nonnull %6) #10
  %11 = icmp ne ptr %1, null
  %12 = icmp ne ptr %2, null
  %or.cond = and i1 %11, %12
  br i1 %or.cond, label %13, label %.thread

.thread:                                          ; preds = %5
  store i64 0, ptr %6, align 8, !tbaa !65
  br label %21

13:                                               ; preds = %5
  %14 = load ptr, ptr getelementptr inbounds nuw (i8, ptr @darktable, i64 152), align 8, !tbaa !18
  %15 = tail call i64 @dt_camctl_get_image_file_timestamp(ptr noundef %14, ptr noundef nonnull %1, ptr noundef nonnull %2) #10
  store i64 %15, ptr %6, align 8, !tbaa !65
  %16 = icmp ne i64 %15, 0
  %17 = icmp sgt i32 %10, 0
  %or.cond3 = select i1 %16, i1 %17, i1 false
  br i1 %or.cond3, label %18, label %21

18:                                               ; preds = %13
  call void @llvm.lifetime.start.p0(i64 20, ptr nonnull %7) #10
  %19 = call i32 @dt_datetime_unix_to_exif(ptr noundef nonnull %7, i64 noundef 20, ptr noundef nonnull %6) #10
  %20 = call noalias ptr (ptr, ...) @g_strconcat(ptr noundef nonnull %2, ptr noundef nonnull @.str.2, ptr noundef nonnull %7, ptr noundef null) #10
  call void @dt_metadata_set(i32 noundef %10, ptr noundef nonnull @.str.3, ptr noundef %20, i32 noundef 0) #10
  call void @g_free(ptr noundef %20) #10
  call void @llvm.lifetime.end.p0(i64 20, ptr nonnull %7) #10
  br label %21

21:                                               ; preds = %.thread, %18, %13
  call void (...) @dt_control_queue_redraw_center() #10
  %22 = call noalias ptr @g_path_get_basename(ptr noundef %3) #10
  %23 = getelementptr inbounds nuw i8, ptr %4, i64 8
  %24 = load ptr, ptr %23, align 8, !tbaa !66
  %25 = call i32 @g_list_length(ptr noundef %24) #10
  %26 = getelementptr inbounds nuw i8, ptr %4, i64 40
  %27 = load i32, ptr %26, align 8, !tbaa !67
  %28 = add i32 %27, 1
  %29 = zext i32 %28 to i64
  %30 = call ptr @dcngettext(ptr noundef null, ptr noundef nonnull @.str.4, ptr noundef nonnull @.str.4, i64 noundef %29, i32 noundef 5) #10
  %31 = load i32, ptr %26, align 8, !tbaa !67
  %32 = add i32 %31, 1
  call void (ptr, ...) @dt_control_log(ptr noundef %30, i32 noundef %32, i32 noundef %25, ptr noundef %22) #10
  call void @g_free(ptr noundef %22) #10
  %33 = sitofp i32 %25 to double
  %34 = fdiv reassoc nsz arcp contract afn double 1.000000e+00, %33
  %35 = getelementptr inbounds nuw i8, ptr %4, i64 32
  %36 = load double, ptr %35, align 8, !tbaa !68
  %37 = fadd reassoc nsz arcp contract afn double %36, %34
  store double %37, ptr %35, align 8, !tbaa !68
  %38 = getelementptr inbounds nuw i8, ptr %4, i64 24
  %39 = load ptr, ptr %38, align 8, !tbaa !69
  call void @dt_control_job_set_progress(ptr noundef %39, double noundef %37) #10
  %40 = and i32 %10, 3
  %41 = icmp eq i32 %40, 3
  br i1 %41, label %42, label %44

42:                                               ; preds = %21
  %43 = load ptr, ptr getelementptr inbounds nuw (i8, ptr @darktable, i64 160), align 8, !tbaa !70
  call void @dt_collection_update_query(ptr noundef %43, i32 noundef 3, i32 noundef 43, ptr noundef null) #10
  br label %44

44:                                               ; preds = %42, %21
  %45 = load i32, ptr %26, align 8, !tbaa !67
  %46 = add i32 %45, 1
  %47 = icmp eq i32 %46, %25
  br i1 %47, label %48, label %73

48:                                               ; preds = %44
  call void (...) @dt_control_queue_redraw_center() #10
  %49 = load i32, ptr getelementptr inbounds nuw (i8, ptr @darktable, i64 3128), align 8, !tbaa !71
  %50 = and i32 %49, 1
  %51 = icmp ne i32 %50, 0
  %52 = load i32, ptr getelementptr inbounds nuw (i8, ptr @darktable, i64 3168), align 8
  %53 = icmp ne i32 %52, 0
  %or.cond5 = select i1 %51, i1 %53, i1 false
  br i1 %or.cond5, label %54, label %58

54:                                               ; preds = %48
  %55 = load i32, ptr getelementptr inbounds nuw (i8, ptr @darktable, i64 8), align 8, !tbaa !72
  %56 = and i32 %55, 1048576
  %.not = icmp eq i32 %56, 0
  br i1 %.not, label %58, label %57

57:                                               ; preds = %54
  call void (ptr, ...) @dt_print_ext(ptr noundef nonnull @.str.5, ptr noundef nonnull @.str.6, ptr noundef nonnull @.str.7, i32 noundef 291, ptr noundef nonnull @__FUNCTION__._camera_import_image_downloaded) #10
  br label %58

58:                                               ; preds = %54, %57, %48
  %59 = load ptr, ptr getelementptr inbounds nuw (i8, ptr @darktable, i64 96), align 8, !tbaa !73
  call void (ptr, i32, ...) @dt_control_signal_raise(ptr noundef %59, i32 noundef 9) #10
  %60 = load i32, ptr getelementptr inbounds nuw (i8, ptr @darktable, i64 3128), align 8, !tbaa !71
  %61 = and i32 %60, 1
  %62 = icmp ne i32 %61, 0
  %63 = load i32, ptr getelementptr inbounds nuw (i8, ptr @darktable, i64 3196), align 4
  %64 = icmp ne i32 %63, 0
  %or.cond7 = select i1 %62, i1 %64, i1 false
  br i1 %or.cond7, label %65, label %69

65:                                               ; preds = %58
  %66 = load i32, ptr getelementptr inbounds nuw (i8, ptr @darktable, i64 8), align 8, !tbaa !72
  %67 = and i32 %66, 1048576
  %.not36 = icmp eq i32 %67, 0
  br i1 %.not36, label %69, label %68

68:                                               ; preds = %65
  call void (ptr, ...) @dt_print_ext(ptr noundef nonnull @.str.5, ptr noundef nonnull @.str.8, ptr noundef nonnull @.str.7, i32 noundef 294, ptr noundef nonnull @__FUNCTION__._camera_import_image_downloaded) #10
  br label %69

69:                                               ; preds = %65, %68, %58
  %70 = load ptr, ptr getelementptr inbounds nuw (i8, ptr @darktable, i64 96), align 8, !tbaa !73
  %71 = load ptr, ptr %4, align 8, !tbaa !61
  %72 = call i32 @dt_import_session_film_id(ptr noundef %71) #10
  call void (ptr, i32, ...) @dt_control_signal_raise(ptr noundef %70, i32 noundef 16, i32 noundef %72) #10
  %.pre = load i32, ptr %26, align 8, !tbaa !67
  %.pre38 = add i32 %.pre, 1
  br label %73

73:                                               ; preds = %69, %44
  %.pre-phi = phi i32 [ %.pre38, %69 ], [ %46, %44 ]
  store i32 %.pre-phi, ptr %26, align 8, !tbaa !67
  call void @llvm.lifetime.end.p0(i64 8, ptr nonnull %6) #10
  ret void
}